00000000  E805000000        call 0xa
00000005  E9F683FFFF        jmp 0xffff8400
0000000A  55                push ebp
0000000B  89E5              mov ebp,esp
0000000D  53                push ebx
0000000E  83EC20            sub esp,byte +0x20
00000011  C745F800000000    mov dword [ebp-0x8],0x0
00000018  E9EC000000        jmp 0x109
0000001D  C745F400000000    mov dword [ebp-0xc],0x0
00000024  E9D2000000        jmp 0xfb
00000029  C745F000000000    mov dword [ebp-0x10],0x0
00000030  E9B8000000        jmp 0xed
00000035  C745EC00000000    mov dword [ebp-0x14],0x0
0000003C  E99E000000        jmp 0xdf
00000041  C745E800000000    mov dword [ebp-0x18],0x0
00000048  E984000000        jmp 0xd1
0000004D  C745E400000000    mov dword [ebp-0x1c],0x0
00000054  EB71              jmp short 0xc7
00000056  8B45F8            mov eax,[ebp-0x8]
00000059  6BD01C            imul edx,eax,byte +0x1c
0000005C  8B45F4            mov eax,[ebp-0xc]
0000005F  01D0              add eax,edx
00000061  C1E007            shl eax,byte 0x7
00000064  89C2              mov edx,eax
00000066  8B45E8            mov eax,[ebp-0x18]
00000069  01D0              add eax,edx
0000006B  C704850080000003  mov dword [eax*4+0x8000],0x3
         -000000
00000076  8B55F0            mov edx,[ebp-0x10]
00000079  89D0              mov eax,edx
0000007B  01C0              add eax,eax
0000007D  01D0              add eax,edx
0000007F  8B55EC            mov edx,[ebp-0x14]
00000082  01D0              add eax,edx
00000084  C1E007            shl eax,byte 0x7
00000087  89C2              mov edx,eax
00000089  8B45E8            mov eax,[ebp-0x18]
0000008C  01D0              add eax,edx
0000008E  C1E007            shl eax,byte 0x7
00000091  89C2              mov edx,eax
00000093  8B45E4            mov eax,[ebp-0x1c]
00000096  01D0              add eax,edx
00000098  C7048500A0060007  mov dword [eax*4+0x6a000],0x7
         -000000
000000A3  8B45F8            mov eax,[ebp-0x8]
000000A6  6BD01C            imul edx,eax,byte +0x1c
000000A9  8B45F4            mov eax,[ebp-0xc]
000000AC  01D0              add eax,edx
000000AE  C1E007            shl eax,byte 0x7
000000B1  89C2              mov edx,eax
000000B3  8B45E4            mov eax,[ebp-0x1c]
000000B6  01D0              add eax,edx
000000B8  C7048500A00F0000  mov dword [eax*4+0xfa000],0x0
         -000000
000000C3  8345E401          add dword [ebp-0x1c],byte +0x1
000000C7  837DE47F          cmp dword [ebp-0x1c],byte +0x7f
000000CB  7E89              jng 0x56
000000CD  8345E801          add dword [ebp-0x18],byte +0x1
000000D1  837DE87F          cmp dword [ebp-0x18],byte +0x7f
000000D5  0F8E72FFFFFF      jng near 0x4d
000000DB  8345EC01          add dword [ebp-0x14],byte +0x1
000000DF  837DEC02          cmp dword [ebp-0x14],byte +0x2
000000E3  0F8E58FFFFFF      jng near 0x41
000000E9  8345F001          add dword [ebp-0x10],byte +0x1
000000ED  837DF002          cmp dword [ebp-0x10],byte +0x2
000000F1  0F8E3EFFFFFF      jng near 0x35
000000F7  8345F401          add dword [ebp-0xc],byte +0x1
000000FB  837DF41B          cmp dword [ebp-0xc],byte +0x1b
000000FF  0F8E24FFFFFF      jng near 0x29
00000105  8345F801          add dword [ebp-0x8],byte +0x1
00000109  837DF81B          cmp dword [ebp-0x8],byte +0x1b
0000010D  0F8E0AFFFFFF      jng near 0x1d
00000113  C745F800000000    mov dword [ebp-0x8],0x0
0000011A  E909010000        jmp 0x228
0000011F  C745F400000000    mov dword [ebp-0xc],0x0
00000126  E9EF000000        jmp 0x21a
0000012B  C745F000000000    mov dword [ebp-0x10],0x0
00000132  E9D5000000        jmp 0x20c
00000137  C745EC00000000    mov dword [ebp-0x14],0x0
0000013E  E9BB000000        jmp 0x1fe
00000143  C745E800000000    mov dword [ebp-0x18],0x0
0000014A  E9A1000000        jmp 0x1f0
0000014F  C745E400000000    mov dword [ebp-0x1c],0x0
00000156  E987000000        jmp 0x1e2
0000015B  8B45F8            mov eax,[ebp-0x8]
0000015E  6BD01C            imul edx,eax,byte +0x1c
00000161  8B45F4            mov eax,[ebp-0xc]
00000164  01D0              add eax,edx
00000166  C1E007            shl eax,byte 0x7
00000169  89C2              mov edx,eax
0000016B  8B45E4            mov eax,[ebp-0x1c]
0000016E  01D0              add eax,edx
00000170  8B1C8500A00F00    mov ebx,[eax*4+0xfa000]
00000177  8B45F8            mov eax,[ebp-0x8]
0000017A  6BD01C            imul edx,eax,byte +0x1c
0000017D  8B45F4            mov eax,[ebp-0xc]
00000180  01D0              add eax,edx
00000182  C1E007            shl eax,byte 0x7
00000185  89C2              mov edx,eax
00000187  8B45E8            mov eax,[ebp-0x18]
0000018A  01D0              add eax,edx
0000018C  8B0C8500800000    mov ecx,[eax*4+0x8000]
00000193  8B55F0            mov edx,[ebp-0x10]
00000196  89D0              mov eax,edx
00000198  01C0              add eax,eax
0000019A  01D0              add eax,edx
0000019C  8B55EC            mov edx,[ebp-0x14]
0000019F  01D0              add eax,edx
000001A1  C1E007            shl eax,byte 0x7
000001A4  89C2              mov edx,eax
000001A6  8B45E8            mov eax,[ebp-0x18]
000001A9  01D0              add eax,edx
000001AB  C1E007            shl eax,byte 0x7
000001AE  89C2              mov edx,eax
000001B0  8B45E4            mov eax,[ebp-0x1c]
000001B3  01D0              add eax,edx
000001B5  8B048500A00600    mov eax,[eax*4+0x6a000]
000001BC  0FAFC1            imul eax,ecx
000001BF  8D1403            lea edx,[ebx+eax]
000001C2  8B45F8            mov eax,[ebp-0x8]
000001C5  6BC81C            imul ecx,eax,byte +0x1c
000001C8  8B45F4            mov eax,[ebp-0xc]
000001CB  01C8              add eax,ecx
000001CD  C1E007            shl eax,byte 0x7
000001D0  89C1              mov ecx,eax
000001D2  8B45E4            mov eax,[ebp-0x1c]
000001D5  01C8              add eax,ecx
000001D7  89148500A00F00    mov [eax*4+0xfa000],edx
000001DE  8345E401          add dword [ebp-0x1c],byte +0x1
000001E2  837DE47F          cmp dword [ebp-0x1c],byte +0x7f
000001E6  0F8E6FFFFFFF      jng near 0x15b
000001EC  8345E801          add dword [ebp-0x18],byte +0x1
000001F0  837DE87F          cmp dword [ebp-0x18],byte +0x7f
000001F4  0F8E55FFFFFF      jng near 0x14f
000001FA  8345EC01          add dword [ebp-0x14],byte +0x1
000001FE  837DEC02          cmp dword [ebp-0x14],byte +0x2
00000202  0F8E3BFFFFFF      jng near 0x143
00000208  8345F001          add dword [ebp-0x10],byte +0x1
0000020C  837DF002          cmp dword [ebp-0x10],byte +0x2
00000210  0F8E21FFFFFF      jng near 0x137
00000216  8345F401          add dword [ebp-0xc],byte +0x1
0000021A  837DF41B          cmp dword [ebp-0xc],byte +0x1b
0000021E  0F8E07FFFFFF      jng near 0x12b
00000224  8345F801          add dword [ebp-0x8],byte +0x1
00000228  837DF81B          cmp dword [ebp-0x8],byte +0x1b
0000022C  0F8EEDFEFFFF      jng near 0x11f
00000232  B800000000        mov eax,0x0
00000237  8B5DFC            mov ebx,[ebp-0x4]
0000023A  C9                leave
0000023B  C3                ret
